; Function Attrs: mustprogress nofree nounwind willreturn memory(write, argmem: readwrite) uwtable
define hidden noundef double @_ZN2cv3ccm10deltaCIE94ERKNS_3VecIdLi3EEES4_RKdS6_S6_S6_S6_(ptr noundef nonnull readonly align 8 captures(none) dereferenceable(24) %0, ptr noundef nonnull readonly align 8 captures(none) dereferenceable(24) %1, ptr noundef nonnull readonly align 8 captures(none) dereferenceable(8) %2, ptr noundef nonnull readonly align 8 captures(none) dereferenceable(8) %3, ptr noundef nonnull readonly align 8 captures(none) dereferenceable(8) %4, ptr noundef nonnull readonly align 8 captures(none) dereferenceable(8) %5, ptr noundef nonnull readonly align 8 captures(none) dereferenceable(8) %6) local_unnamed_addr #2 {
  %8 = load double, ptr %0, align 8, !tbaa !6
  %9 = load double, ptr %1, align 8, !tbaa !6
  %10 = fsub double %8, %9
  %11 = getelementptr inbounds nuw i8, ptr %0, i64 8
  %12 = load double, ptr %11, align 8, !tbaa !6
  %square = fmul double %12, %12
  %13 = getelementptr inbounds nuw i8, ptr %0, i64 16
  %14 = load double, ptr %13, align 8, !tbaa !6
  %square30 = fmul double %14, %14
  %15 = fadd double %square, %square30
  %sqrt39 = tail call double @llvm.sqrt.f64(double %15)
  %16 = getelementptr inbounds nuw i8, ptr %1, i64 8
  %17 = load double, ptr %16, align 8, !tbaa !6
  %square31 = fmul double %17, %17
  %18 = getelementptr inbounds nuw i8, ptr %1, i64 16
  %19 = load double, ptr %18, align 8, !tbaa !6
  %square32 = fmul double %19, %19
  %20 = fadd double %square31, %square32
  %sqrt = tail call double @llvm.sqrt.f64(double %20)
  %21 = fsub double %sqrt39, %sqrt
  %22 = fsub double %12, %17
  %23 = fsub double %14, %19
  %square33 = fmul double %22, %22
  %square34 = fmul double %23, %23
  %24 = fadd double %square33, %square34
  %square35 = fmul double %21, %21
  %25 = fsub double %24, %square35
  %26 = load double, ptr %5, align 8, !tbaa !6
  %27 = tail call double @llvm.fmuladd.f64(double %26, double %sqrt39, double 1.000000e+00)
  %28 = load double, ptr %6, align 8, !tbaa !6
  %29 = tail call double @llvm.fmuladd.f64(double %28, double %sqrt39, double 1.000000e+00)
  %30 = load double, ptr %4, align 8, !tbaa !6
  %31 = fdiv double %10, %30
  %square36 = fmul double %31, %31
  %32 = load double, ptr %3, align 8, !tbaa !6
  %33 = fmul double %27, %32
  %34 = fdiv double %21, %33
  %square37 = fmul double %34, %34
  %35 = fadd double %square36, %square37
  %36 = load double, ptr %2, align 8, !tbaa !6
  %37 = fmul double %29, %36
  %square38 = fmul double %37, %37
  %38 = fdiv double %25, %square38
  %39 = fadd double %35, %38
  %40 = fcmp ogt double %39, 0.000000e+00
  br i1 %40, label %41, label %43

41:                                               ; preds = %7
  %42 = tail call double @sqrt(double noundef %39) #16, !tbaa !13
  br label %43

43:                                               ; preds = %7, %41
  %44 = phi double [ %42, %41 ], [ 0.000000e+00, %7 ]
  ret double %44
}